target datalayout = "e-m:e-p270:32:32-p271:32:32-p272:64:64-i64:64-i128:128-f80:128-n8:16:32:64-S128"
target triple = "x86_64-unknown-linux-gnu"

%"class.v8::Local" = type { %"class.v8::LocalBase" }
%"class.v8::LocalBase" = type { %"class.v8::IndirectHandleBase" }
%"class.v8::IndirectHandleBase" = type { ptr }
%"class.v8::MaybeLocal" = type { %"class.v8::Local" }

@.str.81 = private unnamed_addr constant [38 x i8] c"\0A----- JavaScript stack trace -----\0A\0A\00", align 1
@.str.82 = private unnamed_addr constant [2 x i8] c"\0A\00", align 1

; Function Attrs: mustprogress nounwind uwtable
define dso_local void @_ZN4node23DumpJavaScriptBacktraceEP8_IO_FILE(ptr noundef %fp) #4 {
entry:
  %this.addr.i22 = alloca ptr, align 8
  %this.addr.i19 = alloca ptr, align 8
  %this.addr.i17 = alloca ptr, align 8
  %this.addr.i15 = alloca ptr, align 8
  %this.addr.i13 = alloca ptr, align 8
  %out.addr.i = alloca ptr, align 8
  %this.addr.i = alloca ptr, align 8
  %fp.addr = alloca ptr, align 8
  %isolate = alloca ptr, align 8
  %stack = alloca %"class.v8::Local", align 8
  %ref.tmp = alloca %"class.v8::MaybeLocal", align 8
  %agg.tmp = alloca %"class.v8::Local", align 8
  store ptr %fp, ptr %fp.addr, align 8
  %call = call noundef ptr @_ZN2v87Isolate13TryGetCurrentEv()
  store ptr %call, ptr %isolate, align 8
  %0 = load ptr, ptr %isolate, align 8
  %cmp = icmp eq ptr %0, null
  br i1 %cmp, label %if.then, label %if.end

if.then:                                          ; preds = %entry
  br label %return

if.end:                                           ; preds = %entry
  store ptr %stack, ptr %this.addr.i, align 8
  %this1.i = load ptr, ptr %this.addr.i, align 8
  store ptr %this1.i, ptr %this.addr.i15, align 8
  %this1.i16 = load ptr, ptr %this.addr.i15, align 8
  store ptr %this1.i16, ptr %this.addr.i17, align 8
  %this1.i18 = load ptr, ptr %this.addr.i17, align 8
  store ptr null, ptr %this1.i18, align 8
  %1 = load ptr, ptr %isolate, align 8
  %call1 = call ptr @_ZN4node20GetCurrentStackTraceEPN2v87IsolateEi(ptr noundef %1, i32 noundef 10)
  %coerce.dive = getelementptr inbounds %"class.v8::MaybeLocal", ptr %ref.tmp, i32 0, i32 0
  %coerce.dive2 = getelementptr inbounds %"class.v8::Local", ptr %coerce.dive, i32 0, i32 0
  %coerce.dive3 = getelementptr inbounds %"class.v8::LocalBase", ptr %coerce.dive2, i32 0, i32 0
  %coerce.dive4 = getelementptr inbounds %"class.v8::IndirectHandleBase", ptr %coerce.dive3, i32 0, i32 0
  store ptr %call1, ptr %coerce.dive4, align 8
  store ptr %ref.tmp, ptr %this.addr.i13, align 8
  store ptr %stack, ptr %out.addr.i, align 8
  %this1.i14 = load ptr, ptr %this.addr.i13, align 8
  %2 = load ptr, ptr %out.addr.i, align 8
  call void @llvm.memcpy.p0.p0.i64(ptr align 8 %2, ptr align 8 %this1.i14, i64 8, i1 false)
  store ptr %this1.i14, ptr %this.addr.i19, align 8
  %this1.i20 = load ptr, ptr %this.addr.i19, align 8
  store ptr %this1.i20, ptr %this.addr.i22, align 8
  %this1.i23 = load ptr, ptr %this.addr.i22, align 8
  %3 = load ptr, ptr %this1.i23, align 8
  %cmp.i = icmp eq ptr %3, null
  %lnot.i = xor i1 %cmp.i, true
  %lnot = xor i1 %lnot.i, true
  br i1 %lnot, label %if.then6, label %if.end7

if.then6:                                         ; preds = %if.end
  br label %return

if.end7:                                          ; preds = %if.end
  %4 = load ptr, ptr %fp.addr, align 8
  %call8 = call i32 (ptr, ptr, ...) @fprintf(ptr noundef %4, ptr noundef @.str.81)
  %5 = load ptr, ptr %isolate, align 8
  call void @llvm.memcpy.p0.p0.i64(ptr align 8 %agg.tmp, ptr align 8 %stack, i64 8, i1 false)
  %coerce.dive9 = getelementptr inbounds %"class.v8::Local", ptr %agg.tmp, i32 0, i32 0
  %coerce.dive10 = getelementptr inbounds %"class.v8::LocalBase", ptr %coerce.dive9, i32 0, i32 0
  %coerce.dive11 = getelementptr inbounds %"class.v8::IndirectHandleBase", ptr %coerce.dive10, i32 0, i32 0
  %6 = load ptr, ptr %coerce.dive11, align 8
  call void @_ZN4node15PrintStackTraceEPN2v87IsolateENS0_5LocalINS0_10StackTraceEEENS_16StackTracePrefixE(ptr noundef %5, ptr %6, i32 noundef 1)
  %7 = load ptr, ptr %fp.addr, align 8
  %call12 = call i32 (ptr, ptr, ...) @fprintf(ptr noundef %7, ptr noundef @.str.82)
  br label %return

return:                                           ; preds = %if.end7, %if.then6, %if.then
  ret void
}