; Function Attrs: mustprogress nounwind uwtable
define dso_local void @_ZN4node23DumpJavaScriptBacktraceEP8_IO_FILE(ptr nocapture noundef %fp) local_unnamed_addr #3 {
entry:
  %call = tail call noundef ptr @_ZN2v87Isolate13TryGetCurrentEv() #17
  %cmp = icmp eq ptr %call, null
  br i1 %cmp, label %return, label %if.end

if.end:                                           ; preds = %entry
  %call1 = tail call ptr @_ZN4node20GetCurrentStackTraceEPN2v87IsolateEi(ptr noundef nonnull %call, i32 noundef 10) #17
  %cmp.i = icmp eq ptr %call1, null
  br i1 %cmp.i, label %return, label %if.end7

if.end7:                                          ; preds = %if.end
  %0 = tail call i64 @fwrite(ptr nonnull @.str.81, i64 37, i64 1, ptr %fp)
  tail call void @_ZN4node15PrintStackTraceEPN2v87IsolateENS0_5LocalINS0_10StackTraceEEENS_16StackTracePrefixE(ptr noundef nonnull %call, ptr nonnull %call1, i32 noundef 1) #17
  %fputc = tail call i32 @fputc(i32 10, ptr %fp)
  br label %return

return:                                           ; preds = %if.end, %entry, %if.end7
  ret void
}